target datalayout = "e-m:e-p270:32:32-p271:32:32-p272:64:64-i64:64-i128:128-f80:128-n8:16:32:64-S128"
target triple = "x86_64-pc-linux-gnu"

%union.pthread_mutex_t = type { %struct.__pthread_mutex_s }
%struct.__pthread_mutex_s = type { i32, i32, i32, i32, i32, i16, i16, %struct.__pthread_internal_list }
%struct.__pthread_internal_list = type { ptr, ptr }
%struct.slurmdbd_conf_t = type { ptr, ptr, i16, ptr, ptr, ptr, i16, i16, ptr, i32, ptr, i32, ptr, i16, ptr, i32, i32, i32, i32, i32, i32, i32, ptr, i16, i16, i16 }
%struct.slurmdbd_conn_t = type { ptr, ptr, %union.pthread_mutex_t, ptr, ptr }
%struct.persist_conn_t = type { ptr, i32, i32, i8, ptr, ptr, ptr, i64, i16, i32, i16, i8, i32, i32, ptr, i16, ptr, i64, i32, ptr, %struct.slurm_trigger_callbacks_t, i16 }
%struct.slurm_trigger_callbacks_t = type { ptr, ptr, ptr, ptr, ptr }

@shutdown_time = dso_local global i64 0, align 8
@registered_clusters = dso_local global ptr null, align 8
@registered_lock = dso_local global %union.pthread_mutex_t zeroinitializer, align 8
@slurmdbd_conf = external global ptr, align 8
@.str.22 = private unnamed_addr constant [29 x i8] c"%s: pthread_mutex_lock(): %m\00", align 1
@.str.23 = private unnamed_addr constant [31 x i8] c"%s: pthread_mutex_unlock(): %m\00", align 1
@__func__._commit_handler = private unnamed_addr constant [16 x i8] c"_commit_handler\00", align 1
@.str.80 = private unnamed_addr constant [22 x i8] c"running commit for %s\00", align 1

; Function Attrs: nounwind uwtable
define internal ptr @_commit_handler(ptr noundef %0) #0 {
  %2 = alloca ptr, align 8
  %3 = alloca ptr, align 8
  %4 = alloca ptr, align 8
  %5 = alloca i32, align 4
  %6 = alloca i32, align 4
  store ptr %0, ptr %2, align 8
  call void @llvm.lifetime.start.p0(i64 8, ptr %3) #10
  call void @llvm.lifetime.start.p0(i64 8, ptr %4) #10
  %7 = call i32 @pthread_setcancelstate(i32 noundef 0, ptr noundef null)
  %8 = call i32 @pthread_setcanceltype(i32 noundef 1, ptr noundef null)
  br label %9

9:                                                ; preds = %79, %1
  %10 = load i64, ptr @shutdown_time, align 8
  %11 = icmp ne i64 %10, 0
  %12 = xor i1 %11, true
  br i1 %12, label %13, label %82

13:                                               ; preds = %9
  %14 = load ptr, ptr @slurmdbd_conf, align 8
  %15 = getelementptr inbounds nuw %struct.slurmdbd_conf_t, ptr %14, i32 0, i32 2
  %16 = load i16, ptr %15, align 8
  %17 = icmp ne i16 %16, 0
  br i1 %17, label %18, label %67

18:                                               ; preds = %13
  br label %19

19:                                               ; preds = %18
  call void @llvm.lifetime.start.p0(i64 4, ptr %5) #10
  %20 = call i32 @pthread_mutex_lock(ptr noundef @registered_lock) #10
  store i32 %20, ptr %5, align 4
  %21 = load i32, ptr %5, align 4
  %22 = icmp ne i32 %21, 0
  br i1 %22, label %23, label %26

23:                                               ; preds = %19
  %24 = load i32, ptr %5, align 4
  %25 = call ptr @__errno_location() #13
  store i32 %24, ptr %25, align 4
  call void (ptr, ...) @fatal_abort(ptr noundef @.str.22, ptr noundef @__func__._commit_handler) #12
  unreachable

26:                                               ; preds = %19
  call void @llvm.lifetime.end.p0(i64 4, ptr %5) #10
  br label %27

27:                                               ; preds = %26
  br label %28

28:                                               ; preds = %27
  %29 = load ptr, ptr @registered_clusters, align 8
  %30 = call ptr @list_iterator_create(ptr noundef %29)
  store ptr %30, ptr %3, align 8
  br label %31

31:                                               ; preds = %50, %28
  %32 = load ptr, ptr %3, align 8
  %33 = call ptr @list_next(ptr noundef %32)
  store ptr %33, ptr %4, align 8
  %34 = icmp ne ptr %33, null
  br i1 %34, label %35, label %55

35:                                               ; preds = %31
  br label %36

36:                                               ; preds = %35
  br label %37

37:                                               ; preds = %36
  %38 = call i32 @get_log_level()
  %39 = icmp sge i32 %38, 8
  br i1 %39, label %40, label %46

40:                                               ; preds = %37
  %41 = load ptr, ptr %4, align 8
  %42 = getelementptr inbounds nuw %struct.slurmdbd_conn_t, ptr %41, i32 0, i32 0
  %43 = load ptr, ptr %42, align 8
  %44 = getelementptr inbounds nuw %struct.persist_conn_t, ptr %43, i32 0, i32 6
  %45 = load ptr, ptr %44, align 8
  call void (i32, ptr, ...) @log_var(i32 noundef 8, ptr noundef @.str.80, ptr noundef %45)
  br label %46

46:                                               ; preds = %40, %37
  br label %47

47:                                               ; preds = %46
  br label %48

48:                                               ; preds = %47
  br label %49

49:                                               ; preds = %48
  br label %50

50:                                               ; preds = %49
  %51 = load ptr, ptr %4, align 8
  %52 = getelementptr inbounds nuw %struct.slurmdbd_conn_t, ptr %51, i32 0, i32 3
  %53 = load ptr, ptr %52, align 8
  %54 = call i32 @acct_storage_g_commit(ptr noundef %53, i1 noundef zeroext true)
  br label %31, !llvm.loop !14

55:                                               ; preds = %31
  %56 = load ptr, ptr %3, align 8
  call void @list_iterator_destroy(ptr noundef %56)
  br label %57

57:                                               ; preds = %55
  call void @llvm.lifetime.start.p0(i64 4, ptr %6) #10
  %58 = call i32 @pthread_mutex_unlock(ptr noundef @registered_lock) #10
  store i32 %58, ptr %6, align 4
  %59 = load i32, ptr %6, align 4
  %60 = icmp ne i32 %59, 0
  br i1 %60, label %61, label %64

61:                                               ; preds = %57
  %62 = load i32, ptr %6, align 4
  %63 = call ptr @__errno_location() #13
  store i32 %62, ptr %63, align 4
  call void (ptr, ...) @fatal_abort(ptr noundef @.str.23, ptr noundef @__func__._commit_handler) #12
  unreachable

64:                                               ; preds = %57
  call void @llvm.lifetime.end.p0(i64 4, ptr %6) #10
  br label %65

65:                                               ; preds = %64
  br label %66

66:                                               ; preds = %65
  br label %67

67:                                               ; preds = %66, %13
  %68 = load ptr, ptr @slurmdbd_conf, align 8
  %69 = getelementptr inbounds nuw %struct.slurmdbd_conf_t, ptr %68, i32 0, i32 2
  %70 = load i16, ptr %69, align 8
  %71 = zext i16 %70 to i32
  %72 = icmp ne i32 %71, 0
  br i1 %72, label %73, label %78

73:                                               ; preds = %67
  %74 = load ptr, ptr @slurmdbd_conf, align 8
  %75 = getelementptr inbounds nuw %struct.slurmdbd_conf_t, ptr %74, i32 0, i32 2
  %76 = load i16, ptr %75, align 8
  %77 = zext i16 %76 to i32
  br label %79

78:                                               ; preds = %67
  br label %79

79:                                               ; preds = %78, %73
  %80 = phi i32 [ %77, %73 ], [ 5, %78 ]
  %81 = call i32 @sleep(i32 noundef %80)
  br label %9, !llvm.loop !15

82:                                               ; preds = %9
  call void @llvm.lifetime.end.p0(i64 8, ptr %4) #10
  call void @llvm.lifetime.end.p0(i64 8, ptr %3) #10
  ret ptr null
}