; Function Attrs: nounwind uwtable
define internal noalias noundef ptr @_commit_handler(ptr readnone captures(none) %0) #0 {
  %2 = tail call i32 @pthread_setcancelstate(i32 noundef 0, ptr noundef null) #14
  %3 = tail call i32 @pthread_setcanceltype(i32 noundef 1, ptr noundef null) #14
  %4 = load i64, ptr @shutdown_time, align 8
  %.not18 = icmp eq i64 %4, 0
  br i1 %.not18, label %.lr.ph20, label %._crit_edge21

.lr.ph20:                                         ; preds = %1, %32
  %5 = load ptr, ptr @slurmdbd_conf, align 8
  %6 = getelementptr inbounds nuw i8, ptr %5, i64 16
  %7 = load i16, ptr %6, align 8
  %.not10 = icmp eq i16 %7, 0
  br i1 %.not10, label %.thread, label %8

8:                                                ; preds = %.lr.ph20
  %9 = tail call i32 @pthread_mutex_lock(ptr noundef nonnull @registered_lock) #14
  %.not11 = icmp eq i32 %9, 0
  br i1 %.not11, label %12, label %10

10:                                               ; preds = %8
  %11 = tail call ptr @__errno_location() #18
  store i32 %9, ptr %11, align 4
  tail call void (ptr, ...) @fatal_abort(ptr noundef nonnull @.str.22, ptr noundef nonnull @__func__._commit_handler) #16
  unreachable

12:                                               ; preds = %8
  %13 = load ptr, ptr @registered_clusters, align 8
  %14 = tail call ptr @list_iterator_create(ptr noundef %13) #14
  %15 = tail call ptr @list_next(ptr noundef %14) #14
  %.not1217 = icmp eq ptr %15, null
  br i1 %.not1217, label %._crit_edge, label %.lr.ph

.lr.ph:                                           ; preds = %12, %23
  %16 = phi ptr [ %27, %23 ], [ %15, %12 ]
  %17 = tail call i32 @get_log_level() #14
  %18 = icmp sgt i32 %17, 7
  br i1 %18, label %19, label %23

19:                                               ; preds = %.lr.ph
  %20 = load ptr, ptr %16, align 8
  %21 = getelementptr inbounds nuw i8, ptr %20, i64 40
  %22 = load ptr, ptr %21, align 8
  tail call void (i32, ptr, ...) @log_var(i32 noundef 8, ptr noundef nonnull @.str.80, ptr noundef %22) #14
  br label %23

23:                                               ; preds = %19, %.lr.ph
  %24 = getelementptr inbounds nuw i8, ptr %16, i64 56
  %25 = load ptr, ptr %24, align 8
  %26 = tail call i32 @acct_storage_g_commit(ptr noundef %25, i1 noundef zeroext true) #14
  %27 = tail call ptr @list_next(ptr noundef %14) #14
  %.not12 = icmp eq ptr %27, null
  br i1 %.not12, label %._crit_edge, label %.lr.ph, !llvm.loop !15

._crit_edge:                                      ; preds = %23, %12
  tail call void @list_iterator_destroy(ptr noundef %14) #14
  %28 = tail call i32 @pthread_mutex_unlock(ptr noundef nonnull @registered_lock) #14
  %.not13 = icmp eq i32 %28, 0
  br i1 %.not13, label %31, label %29

29:                                               ; preds = %._crit_edge
  %30 = tail call ptr @__errno_location() #18
  store i32 %28, ptr %30, align 4
  tail call void (ptr, ...) @fatal_abort(ptr noundef nonnull @.str.23, ptr noundef nonnull @__func__._commit_handler) #16
  unreachable

31:                                               ; preds = %._crit_edge
  %.pre = load ptr, ptr @slurmdbd_conf, align 8
  %.phi.trans.insert = getelementptr inbounds nuw i8, ptr %.pre, i64 16
  %.pre24 = load i16, ptr %.phi.trans.insert, align 8
  %.pre24.fr = freeze i16 %.pre24
  %.not14 = icmp eq i16 %.pre24.fr, 0
  br i1 %.not14, label %.thread, label %32

.thread:                                          ; preds = %.lr.ph20, %31
  br label %32

32:                                               ; preds = %31, %.thread
  %33 = phi i16 [ 5, %.thread ], [ %.pre24.fr, %31 ]
  %spec.select = zext i16 %33 to i32
  %34 = tail call i32 @sleep(i32 noundef %spec.select) #14
  %35 = load i64, ptr @shutdown_time, align 8
  %.not = icmp eq i64 %35, 0
  br i1 %.not, label %.lr.ph20, label %._crit_edge21, !llvm.loop !16

._crit_edge21:                                    ; preds = %32, %1
  ret ptr null
}